target datalayout = "e-m:e-p270:32:32-p271:32:32-p272:64:64-i64:64-i128:128-f80:128-n8:16:32:64-S128"
target triple = "x86_64-pc-linux-gnu"

@.str.52 = private unnamed_addr constant [3 x i8] c"tr\00", align 1
@proto_tr = internal global i32 0, align 4
@tr_handle = internal global ptr null, align 8
@.str.56 = private unnamed_addr constant [6 x i8] c"trmac\00", align 1
@trmac_handle = internal global ptr null, align 8
@.str.57 = private unnamed_addr constant [4 x i8] c"llc\00", align 1
@llc_handle = internal global ptr null, align 8
@.str.58 = private unnamed_addr constant [11 x i8] c"wtap_encap\00", align 1
@.str.59 = private unnamed_addr constant [26 x i8] c"sflow_245.header_protocol\00", align 1
@.str.60 = private unnamed_addr constant [9 x i8] c"atm_lane\00", align 1
@llc_cap_handle = internal global ptr null, align 8

; Function Attrs: null_pointer_is_valid sspstrong uwtable
define hidden void @proto_reg_handoff_tr() #0 {
  %1 = alloca ptr, align 8
  call void @llvm.lifetime.start.p0(i64 8, ptr %1) #13
  %2 = load i32, ptr @proto_tr, align 4
  %3 = call ptr @find_dissector_add_dependency(ptr noundef @.str.56, i32 noundef %2)
  store ptr %3, ptr @trmac_handle, align 8
  %4 = load i32, ptr @proto_tr, align 4
  %5 = call ptr @find_dissector_add_dependency(ptr noundef @.str.57, i32 noundef %4)
  store ptr %5, ptr @llc_handle, align 8
  %6 = load ptr, ptr @tr_handle, align 8
  call void @dissector_add_uint(ptr noundef @.str.58, i32 noundef 2, ptr noundef %6)
  %7 = load ptr, ptr @tr_handle, align 8
  call void @dissector_add_uint(ptr noundef @.str.59, i32 noundef 3, ptr noundef %7)
  %8 = call ptr @find_capture_dissector(ptr noundef @.str.52)
  store ptr %8, ptr %1, align 8
  %9 = load ptr, ptr %1, align 8
  call void @capture_dissector_add_uint(ptr noundef @.str.58, i32 noundef 2, ptr noundef %9)
  %10 = load ptr, ptr %1, align 8
  call void @capture_dissector_add_uint(ptr noundef @.str.60, i32 noundef 3, ptr noundef %10)
  %11 = load ptr, ptr %1, align 8
  call void @capture_dissector_add_uint(ptr noundef @.str.60, i32 noundef 5, ptr noundef %11)
  %12 = call ptr @find_capture_dissector(ptr noundef @.str.57)
  store ptr %12, ptr @llc_cap_handle, align 8
  call void @llvm.lifetime.end.p0(i64 8, ptr %1) #13
  ret void
}