; Function Attrs: null_pointer_is_valid sspstrong uwtable
define hidden void @proto_reg_handoff_tr() local_unnamed_addr #0 {
  %1 = load i32, ptr @proto_tr, align 4
  %2 = tail call ptr @find_dissector_add_dependency(ptr noundef nonnull @.str.56, i32 noundef %1)
  store ptr %2, ptr @trmac_handle, align 8
  %3 = load i32, ptr @proto_tr, align 4
  %4 = tail call ptr @find_dissector_add_dependency(ptr noundef nonnull @.str.57, i32 noundef %3)
  store ptr %4, ptr @llc_handle, align 8
  %5 = load ptr, ptr @tr_handle, align 8
  tail call void @dissector_add_uint(ptr noundef nonnull @.str.58, i32 noundef 2, ptr noundef %5)
  %6 = load ptr, ptr @tr_handle, align 8
  tail call void @dissector_add_uint(ptr noundef nonnull @.str.59, i32 noundef 3, ptr noundef %6)
  %7 = tail call ptr @find_capture_dissector(ptr noundef nonnull @.str.52)
  tail call void @capture_dissector_add_uint(ptr noundef nonnull @.str.58, i32 noundef 2, ptr noundef %7)
  tail call void @capture_dissector_add_uint(ptr noundef nonnull @.str.60, i32 noundef 3, ptr noundef %7)
  tail call void @capture_dissector_add_uint(ptr noundef nonnull @.str.60, i32 noundef 5, ptr noundef %7)
  %8 = tail call ptr @find_capture_dissector(ptr noundef nonnull @.str.57)
  store ptr %8, ptr @llc_cap_handle, align 8
  ret void
}